target datalayout = "e-m:e-p270:32:32-p271:32:32-p272:64:64-i64:64-i128:128-f80:128-n8:16:32:64-S128"
target triple = "x86_64-pc-linux-gnu"

%struct.timeout_params = type { i32, i8, i8, ptr, i64, i64, i32 }
%struct.DisableTimeoutParams = type { i32, i8 }

@alarm_enabled = internal global i32 0, align 4
@num_active_timeouts = internal global i32 0, align 4
@all_timeouts = internal global [23 x %struct.timeout_params] zeroinitializer, align 16
@.str.1 = private unnamed_addr constant [10 x i8] c"timeout.c\00", align 1
@active_timeouts = internal global [23 x ptr] zeroinitializer, align 16
@.str.4 = private unnamed_addr constant [36 x i8] c"timeout index %d out of range 0..%d\00", align 1
@__func__.remove_timeout_index = private unnamed_addr constant [21 x i8] c"remove_timeout_index\00", align 1

; Function Attrs: nounwind uwtable
define internal void @remove_timeout_index(i32 noundef %0) #0 {
  %2 = alloca i32, align 4
  %3 = alloca i32, align 4
  store i32 %0, ptr %2, align 4
  call void @llvm.lifetime.start.p0(i64 4, ptr %3) #6
  %4 = load i32, ptr %2, align 4
  %5 = icmp slt i32 %4, 0
  br i1 %5, label %10, label %6

6:                                                ; preds = %1
  %7 = load i32, ptr %2, align 4
  %8 = load volatile i32, ptr @num_active_timeouts, align 4
  %9 = icmp sge i32 %7, %8
  br i1 %9, label %10, label %24

10:                                               ; preds = %6, %1
  br label %11

11:                                               ; preds = %10
  br i1 true, label %12, label %14

12:                                               ; preds = %11
  %13 = call zeroext i1 @errstart_cold(i32 noundef 22, ptr noundef null) #7
  br i1 %13, label %16, label %21

14:                                               ; preds = %11
  %15 = call zeroext i1 @errstart(i32 noundef 22, ptr noundef null)
  br i1 %15, label %16, label %21

16:                                               ; preds = %14, %12
  %17 = load i32, ptr %2, align 4
  %18 = load volatile i32, ptr @num_active_timeouts, align 4
  %19 = sub i32 %18, 1
  %20 = call i32 (ptr, ...) @errmsg_internal(ptr noundef @.str.4, i32 noundef %17, i32 noundef %19)
  call void @errfinish(ptr noundef @.str.1, i32 noundef 143, ptr noundef @__func__.remove_timeout_index)
  br label %21

21:                                               ; preds = %16, %14, %12
  unreachable

22:                                               ; No predecessors!
  br label %23

23:                                               ; preds = %22
  br label %24

24:                                               ; preds = %23, %6
  %25 = load i32, ptr %2, align 4
  %26 = sext i32 %25 to i64
  %27 = getelementptr inbounds [23 x ptr], ptr @active_timeouts, i64 0, i64 %26
  %28 = load volatile ptr, ptr %27, align 8
  %29 = getelementptr inbounds nuw %struct.timeout_params, ptr %28, i32 0, i32 1
  store volatile i8 0, ptr %29, align 4
  %30 = load i32, ptr %2, align 4
  %31 = add i32 %30, 1
  store i32 %31, ptr %3, align 4
  br label %32

32:                                               ; preds = %45, %24
  %33 = load i32, ptr %3, align 4
  %34 = load volatile i32, ptr @num_active_timeouts, align 4
  %35 = icmp slt i32 %33, %34
  br i1 %35, label %36, label %48

36:                                               ; preds = %32
  %37 = load i32, ptr %3, align 4
  %38 = sext i32 %37 to i64
  %39 = getelementptr inbounds [23 x ptr], ptr @active_timeouts, i64 0, i64 %38
  %40 = load volatile ptr, ptr %39, align 8
  %41 = load i32, ptr %3, align 4
  %42 = sub i32 %41, 1
  %43 = sext i32 %42 to i64
  %44 = getelementptr inbounds [23 x ptr], ptr @active_timeouts, i64 0, i64 %43
  store volatile ptr %40, ptr %44, align 8
  br label %45

45:                                               ; preds = %36
  %46 = load i32, ptr %3, align 4
  %47 = add i32 %46, 1
  store i32 %47, ptr %3, align 4
  br label %32, !llvm.loop !13

48:                                               ; preds = %32
  %49 = load volatile i32, ptr @num_active_timeouts, align 4
  %50 = add i32 %49, -1
  store volatile i32 %50, ptr @num_active_timeouts, align 4
  call void @llvm.lifetime.end.p0(i64 4, ptr %3) #6
  ret void
}

; Function Attrs: nounwind uwtable
define internal i32 @find_active_timeout(i32 noundef %0) #0 {
  %2 = alloca i32, align 4
  %3 = alloca i32, align 4
  %4 = alloca i32, align 4
  %5 = alloca i32, align 4
  store i32 %0, ptr %3, align 4
  call void @llvm.lifetime.start.p0(i64 4, ptr %4) #6
  store i32 0, ptr %4, align 4
  br label %6

6:                                                ; preds = %22, %1
  %7 = load i32, ptr %4, align 4
  %8 = load volatile i32, ptr @num_active_timeouts, align 4
  %9 = icmp slt i32 %7, %8
  br i1 %9, label %10, label %25

10:                                               ; preds = %6
  %11 = load i32, ptr %4, align 4
  %12 = sext i32 %11 to i64
  %13 = getelementptr inbounds [23 x ptr], ptr @active_timeouts, i64 0, i64 %12
  %14 = load volatile ptr, ptr %13, align 8
  %15 = getelementptr inbounds nuw %struct.timeout_params, ptr %14, i32 0, i32 0
  %16 = load i32, ptr %15, align 8
  %17 = load i32, ptr %3, align 4
  %18 = icmp eq i32 %16, %17
  br i1 %18, label %19, label %21

19:                                               ; preds = %10
  %20 = load i32, ptr %4, align 4
  store i32 %20, ptr %2, align 4
  store i32 1, ptr %5, align 4
  br label %26

21:                                               ; preds = %10
  br label %22

22:                                               ; preds = %21
  %23 = load i32, ptr %4, align 4
  %24 = add i32 %23, 1
  store i32 %24, ptr %4, align 4
  br label %6, !llvm.loop !14

25:                                               ; preds = %6
  store i32 -1, ptr %2, align 4
  store i32 1, ptr %5, align 4
  br label %26

26:                                               ; preds = %25, %19
  call void @llvm.lifetime.end.p0(i64 4, ptr %4) #6
  %27 = load i32, ptr %2, align 4
  ret i32 %27
}

; Function Attrs: nounwind uwtable
define dso_local void @disable_timeouts(ptr noundef %0, i32 noundef %1) #0 {
  %3 = alloca ptr, align 8
  %4 = alloca i32, align 4
  %5 = alloca i32, align 4
  %6 = alloca i32, align 4
  store ptr %0, ptr %3, align 8
  store i32 %1, ptr %4, align 4
  call void @llvm.lifetime.start.p0(i64 4, ptr %5) #6
  store volatile i32 0, ptr @alarm_enabled, align 4
  store i32 0, ptr %5, align 4
  br label %7

7:                                                ; preds = %41, %2
  %8 = load i32, ptr %5, align 4
  %9 = load i32, ptr %4, align 4
  %10 = icmp slt i32 %8, %9
  br i1 %10, label %11, label %44

11:                                               ; preds = %7
  call void @llvm.lifetime.start.p0(i64 4, ptr %6) #6
  %12 = load ptr, ptr %3, align 8
  %13 = load i32, ptr %5, align 4
  %14 = sext i32 %13 to i64
  %15 = getelementptr inbounds %struct.DisableTimeoutParams, ptr %12, i64 %14
  %16 = getelementptr inbounds nuw %struct.DisableTimeoutParams, ptr %15, i32 0, i32 0
  %17 = load i32, ptr %16, align 4
  store i32 %17, ptr %6, align 4
  %18 = load i32, ptr %6, align 4
  %19 = zext i32 %18 to i64
  %20 = getelementptr inbounds nuw [23 x %struct.timeout_params], ptr @all_timeouts, i64 0, i64 %19
  %21 = getelementptr inbounds nuw %struct.timeout_params, ptr %20, i32 0, i32 1
  %22 = load volatile i8, ptr %21, align 4, !range !8, !noundef !9
  %23 = trunc i8 %22 to i1
  br i1 %23, label %24, label %27

24:                                               ; preds = %11
  %25 = load i32, ptr %6, align 4
  %26 = call i32 @find_active_timeout(i32 noundef %25)
  call void @remove_timeout_index(i32 noundef %26)
  br label %27

27:                                               ; preds = %24, %11
  %28 = load ptr, ptr %3, align 8
  %29 = load i32, ptr %5, align 4
  %30 = sext i32 %29 to i64
  %31 = getelementptr inbounds %struct.DisableTimeoutParams, ptr %28, i64 %30
  %32 = getelementptr inbounds nuw %struct.DisableTimeoutParams, ptr %31, i32 0, i32 1
  %33 = load i8, ptr %32, align 4, !range !8, !noundef !9
  %34 = trunc i8 %33 to i1
  br i1 %34, label %40, label %35

35:                                               ; preds = %27
  %36 = load i32, ptr %6, align 4
  %37 = zext i32 %36 to i64
  %38 = getelementptr inbounds nuw [23 x %struct.timeout_params], ptr @all_timeouts, i64 0, i64 %37
  %39 = getelementptr inbounds nuw %struct.timeout_params, ptr %38, i32 0, i32 2
  store volatile i8 0, ptr %39, align 1
  br label %40

40:                                               ; preds = %35, %27
  call void @llvm.lifetime.end.p0(i64 4, ptr %6) #6
  br label %41

41:                                               ; preds = %40
  %42 = load i32, ptr %5, align 4
  %43 = add i32 %42, 1
  store i32 %43, ptr %5, align 4
  br label %7, !llvm.loop !15

44:                                               ; preds = %7
  %45 = load volatile i32, ptr @num_active_timeouts, align 4
  %46 = icmp sgt i32 %45, 0
  br i1 %46, label %47, label %49

47:                                               ; preds = %44
  %48 = call i64 @GetCurrentTimestamp()
  call void @schedule_alarm(i64 noundef %48)
  br label %49

49:                                               ; preds = %47, %44
  call void @llvm.lifetime.end.p0(i64 4, ptr %5) #6
  ret void
}