; Function Attrs: nounwind uwtable
define dso_local void @disable_timeouts(ptr noundef readonly captures(none) %0, i32 noundef %1) local_unnamed_addr #0 {
  store volatile i32 0, ptr @alarm_enabled, align 4
  %3 = icmp sgt i32 %1, 0
  br i1 %3, label %.lr.ph.preheader, label %._crit_edge

.lr.ph.preheader:                                 ; preds = %2
  %wide.trip.count = zext nneg i32 %1 to i64
  br label %.lr.ph

.lr.ph:                                           ; preds = %.lr.ph.preheader, %50
  %indvars.iv = phi i64 [ 0, %.lr.ph.preheader ], [ %indvars.iv.next, %50 ]
  %4 = getelementptr inbounds nuw %struct.DisableTimeoutParams, ptr %0, i64 %indvars.iv
  %5 = load i32, ptr %4, align 4
  %6 = zext i32 %5 to i64
  %7 = getelementptr inbounds nuw [23 x %struct.timeout_params], ptr @all_timeouts, i64 0, i64 %6
  %8 = getelementptr inbounds nuw i8, ptr %7, i64 4
  %9 = load volatile i8, ptr %8, align 4, !range !9, !noundef !10
  %10 = trunc nuw i8 %9 to i1
  br i1 %10, label %11, label %44

11:                                               ; preds = %.lr.ph
  %12 = load volatile i32, ptr @num_active_timeouts, align 4
  %13 = icmp sgt i32 %12, 0
  br i1 %13, label %.lr.ph.i, label %find_active_timeout.exit.thread

.lr.ph.i:                                         ; preds = %11, %19
  %indvars.iv.i = phi i64 [ %indvars.iv.next.i, %19 ], [ 0, %11 ]
  %14 = getelementptr inbounds nuw [23 x ptr], ptr @active_timeouts, i64 0, i64 %indvars.iv.i
  %15 = load volatile ptr, ptr %14, align 8
  %16 = load i32, ptr %15, align 8
  %17 = icmp eq i32 %16, %5
  %18 = load volatile i32, ptr @num_active_timeouts, align 4
  br i1 %17, label %find_active_timeout.exit, label %19

19:                                               ; preds = %.lr.ph.i
  %indvars.iv.next.i = add nuw nsw i64 %indvars.iv.i, 1
  %20 = sext i32 %18 to i64
  %21 = icmp slt i64 %indvars.iv.next.i, %20
  br i1 %21, label %.lr.ph.i, label %find_active_timeout.exit.thread, !llvm.loop !11

find_active_timeout.exit:                         ; preds = %.lr.ph.i
  %22 = trunc nuw nsw i64 %indvars.iv.i to i32
  %.not.i = icmp sgt i32 %18, %22
  br i1 %.not.i, label %27, label %find_active_timeout.exit.thread

find_active_timeout.exit.thread:                  ; preds = %11, %find_active_timeout.exit, %19
  %.06.i13 = phi i32 [ -1, %19 ], [ -1, %11 ], [ %22, %find_active_timeout.exit ]
  %23 = tail call zeroext i1 @errstart_cold(i32 noundef 22, ptr noundef null) #11
  tail call void @llvm.assume(i1 %23)
  %24 = load volatile i32, ptr @num_active_timeouts, align 4
  %25 = add i32 %24, -1
  %26 = tail call i32 (ptr, ...) @errmsg_internal(ptr noundef nonnull @.str.4, i32 noundef %.06.i13, i32 noundef %25) #10
  tail call void @errfinish(ptr noundef nonnull @.str.1, i32 noundef 143, ptr noundef nonnull @__func__.remove_timeout_index) #10
  unreachable

27:                                               ; preds = %find_active_timeout.exit
  %28 = and i64 %indvars.iv.i, 4294967295
  %29 = getelementptr inbounds nuw [23 x ptr], ptr @active_timeouts, i64 0, i64 %28
  %30 = load volatile ptr, ptr %29, align 8
  %31 = getelementptr inbounds nuw i8, ptr %30, i64 4
  store volatile i8 0, ptr %31, align 4
  %.010.i = add nuw nsw i32 %22, 1
  %32 = load volatile i32, ptr @num_active_timeouts, align 4
  %33 = icmp slt i32 %.010.i, %32
  br i1 %33, label %.lr.ph.preheader.i, label %remove_timeout_index.exit

.lr.ph.preheader.i:                               ; preds = %27
  %34 = zext nneg i32 %.010.i to i64
  br label %.lr.ph.i9

.lr.ph.i9:                                        ; preds = %.lr.ph.i9, %.lr.ph.preheader.i
  %indvars.iv.i10 = phi i64 [ %34, %.lr.ph.preheader.i ], [ %indvars.iv.next.i11, %.lr.ph.i9 ]
  %.0.in11.i = phi i64 [ %indvars.iv.i, %.lr.ph.preheader.i ], [ %indvars.iv.i10, %.lr.ph.i9 ]
  %35 = getelementptr inbounds nuw [23 x ptr], ptr @active_timeouts, i64 0, i64 %indvars.iv.i10
  %36 = load volatile ptr, ptr %35, align 8
  %sext = shl i64 %.0.in11.i, 32
  %37 = ashr exact i64 %sext, 32
  %38 = getelementptr inbounds [23 x ptr], ptr @active_timeouts, i64 0, i64 %37
  store volatile ptr %36, ptr %38, align 8
  %indvars.iv.next.i11 = add nuw nsw i64 %indvars.iv.i10, 1
  %39 = load volatile i32, ptr @num_active_timeouts, align 4
  %40 = sext i32 %39 to i64
  %41 = icmp slt i64 %indvars.iv.next.i11, %40
  br i1 %41, label %.lr.ph.i9, label %remove_timeout_index.exit, !llvm.loop !6

remove_timeout_index.exit:                        ; preds = %.lr.ph.i9, %27
  %42 = load volatile i32, ptr @num_active_timeouts, align 4
  %43 = add i32 %42, -1
  store volatile i32 %43, ptr @num_active_timeouts, align 4
  br label %44

44:                                               ; preds = %remove_timeout_index.exit, %.lr.ph
  %45 = getelementptr inbounds nuw i8, ptr %4, i64 4
  %46 = load i8, ptr %45, align 4, !range !9, !noundef !10
  %47 = trunc nuw i8 %46 to i1
  br i1 %47, label %50, label %48

48:                                               ; preds = %44
  %49 = getelementptr inbounds nuw i8, ptr %7, i64 5
  store volatile i8 0, ptr %49, align 1
  br label %50

50:                                               ; preds = %48, %44
  %indvars.iv.next = add nuw nsw i64 %indvars.iv, 1
  %exitcond.not = icmp eq i64 %indvars.iv.next, %wide.trip.count
  br i1 %exitcond.not, label %._crit_edge, label %.lr.ph, !llvm.loop !15

._crit_edge:                                      ; preds = %50, %2
  %51 = load volatile i32, ptr @num_active_timeouts, align 4
  %52 = icmp sgt i32 %51, 0
  br i1 %52, label %53, label %55

53:                                               ; preds = %._crit_edge
  %54 = tail call i64 @GetCurrentTimestamp() #10
  tail call fastcc void @schedule_alarm(i64 noundef %54)
  br label %55

55:                                               ; preds = %53, %._crit_edge
  ret void
}